librocsgraphtheory.so.0:_ZN11GraphTheory11ValueAssign14enumerateAlphaI14QSharedPointerINS_4EdgeEEEEvRK7QVectorIT_ERK7QStringSC_b
librocsgraphtheory.so.0:_ZN11GraphTheory11ValueAssign14enumerateAlphaI14QSharedPointerINS_4NodeEEEEvRK7QVectorIT_ERK7QStringSC_b
librocsgraphtheory.so.0:_ZN11GraphTheory11ValueAssign17assignRandomRealsI14QSharedPointerINS_4EdgeEEEEvRK7QVectorIT_ERK7QStringddib
librocsgraphtheory.so.0:_ZN11GraphTheory11ValueAssign17assignRandomRealsI14QSharedPointerINS_4NodeEEEEvRK7QVectorIT_ERK7QStringddib
librocsgraphtheory.so.0:_ZN11GraphTheory11ValueAssign19assignConstantValueI14QSharedPointerINS_4EdgeEEEEvRK7QVectorIT_ERK7QStringSC_b
librocsgraphtheory.so.0:_ZN11GraphTheory11ValueAssign19assignConstantValueI14QSharedPointerINS_4NodeEEEEvRK7QVectorIT_ERK7QStringSC_b
librocsgraphtheory.so.0:_ZN11GraphTheory11ValueAssign20assignRandomIntegersI14QSharedPointerINS_4EdgeEEEEvRK7QVectorIT_ERK7QStringiiib
librocsgraphtheory.so.0:_ZN11GraphTheory11ValueAssign20assignRandomIntegersI14QSharedPointerINS_4NodeEEEEvRK7QVectorIT_ERK7QStringiiib
librocsgraphtheory.so.0:_ZN11GraphTheory11ValueAssign9enumerateI14QSharedPointerINS_4EdgeEEEEvRK7QVectorIT_ERK7QStringiSC_b
librocsgraphtheory.so.0:_ZN11GraphTheory11ValueAssign9enumerateI14QSharedPointerINS_4NodeEEEEvRK7QVectorIT_ERK7QStringiSC_b
librocsgraphtheory.so.0:_ZN11GraphTheory11ValueAssignC1Ev
librocsgraphtheory.so.0:_ZN11GraphTheory11ValueAssignC2Ev
librocsgraphtheory.so.0:_ZN11GraphTheory13ConsoleModule11qt_metacallEN11QMetaObject4CallEiPPv
librocsgraphtheory.so.0:_ZN11GraphTheory13ConsoleModule11qt_metacastEPKc
librocsgraphtheory.so.0:_ZN11GraphTheory13ConsoleModule3logERK7QString
librocsgraphtheory.so.0:_ZN11GraphTheory13ConsoleModule5clearEv
librocsgraphtheory.so.0:_ZN11GraphTheory13ConsoleModule5debugERK7QString
librocsgraphtheory.so.0:_ZN11GraphTheory13ConsoleModule5errorERK7QString
librocsgraphtheory.so.0:_ZN11GraphTheory13ConsoleModule7messageERK7QStringNS_6Kernel11MessageTypeE
librocsgraphtheory.so.0:_ZN11GraphTheory13ConsoleModuleC1EP7QObject
librocsgraphtheory.so.0:_ZN11GraphTheory13ConsoleModuleC2EP7QObject
librocsgraphtheory.so.0:_ZN11GraphTheory13ConsoleModuleD0Ev
librocsgraphtheory.so.0:_ZN11GraphTheory13ConsoleModuleD1Ev
librocsgraphtheory.so.0:_ZN11GraphTheory13ConsoleModuleD2Ev
librocsgraphtheory.so.0:_ZN11GraphTheory13EdgeTypeModel11edgeChangedEi
librocsgraphtheory.so.0:_ZN11GraphTheory13EdgeTypeModel11qt_metacallEN11QMetaObject4CallEiPPv
librocsgraphtheory.so.0:_ZN11GraphTheory13EdgeTypeModel11qt_metacastEPKc
librocsgraphtheory.so.0:_ZN11GraphTheory13EdgeTypeModel11setDocumentE14QSharedPointerINS_13GraphDocumentEE
librocsgraphtheory.so.0:_ZN11GraphTheory13EdgeTypeModel15onEdgeTypeAddedEv
librocsgraphtheory.so.0:_ZN11GraphTheory13EdgeTypeModel18onEdgeTypesRemovedEv
librocsgraphtheory.so.0:_ZN11GraphTheory13EdgeTypeModel19emitEdgeTypeChangedEi
librocsgraphtheory.so.0:_ZN11GraphTheory13EdgeTypeModel24onEdgeTypeAboutToBeAddedE14QSharedPointerINS_8EdgeTypeEEi
librocsgraphtheory.so.0:_ZN11GraphTheory13EdgeTypeModel27onEdgeTypesAboutToBeRemovedEii
librocsgraphtheory.so.0:_ZN11GraphTheory13EdgeTypeModel7setDataERK11QModelIndexRK8QVarianti
librocsgraphtheory.so.0:_ZN11GraphTheory13EdgeTypeModelC1EP7QObject
librocsgraphtheory.so.0:_ZN11GraphTheory13EdgeTypeModelC2EP7QObject
librocsgraphtheory.so.0:_ZN11GraphTheory13EdgeTypeModelD0Ev
librocsgraphtheory.so.0:_ZN11GraphTheory13EdgeTypeModelD1Ev
librocsgraphtheory.so.0:_ZN11GraphTheory13EdgeTypeModelD2Ev
librocsgraphtheory.so.0:_ZN11GraphTheory13EdgeTypeStyle10setVisibleEb
librocsgraphtheory.so.0:_ZN11GraphTheory13EdgeTypeStyle11qt_metacallEN11QMetaObject4CallEiPPv
librocsgraphtheory.so.0:_ZN11GraphTheory13EdgeTypeStyle11qt_metacastEPKc
librocsgraphtheory.so.0:_ZN11GraphTheory13EdgeTypeStyle12colorChangedE6QColor
librocsgraphtheory.so.0:_ZN11GraphTheory13EdgeTypeStyle17visibilityChangedEb
librocsgraphtheory.so.0:_ZN11GraphTheory13EdgeTypeStyle23setPropertyNamesVisibleEb
librocsgraphtheory.so.0:_ZN11GraphTheory13EdgeTypeStyle30propertyNamesVisibilityChangedEb
librocsgraphtheory.so.0:_ZN11GraphTheory13EdgeTypeStyle7changedEv
librocsgraphtheory.so.0:_ZN11GraphTheory13EdgeTypeStyle8setColorERK6QColor
librocsgraphtheory.so.0:_ZN11GraphTheory13EdgeTypeStyleC1Ev
librocsgraphtheory.so.0:_ZN11GraphTheory13EdgeTypeStyleC2Ev
librocsgraphtheory.so.0:_ZN11GraphTheory13EdgeTypeStyleD0Ev
librocsgraphtheory.so.0:_ZN11GraphTheory13EdgeTypeStyleD1Ev
librocsgraphtheory.so.0:_ZN11GraphTheory13EdgeTypeStyleD2Ev
librocsgraphtheory.so.0:_ZN11GraphTheory13GraphDocument10createViewEP7QWidget
librocsgraphtheory.so.0:_ZN11GraphTheory13GraphDocument10generateIdEv
librocsgraphtheory.so.0:_ZN11GraphTheory13GraphDocument11qt_metacallEN11QMetaObject4CallEiPPv
librocsgraphtheory.so.0:_ZN11GraphTheory13GraphDocument11qt_metacastEPKc
librocsgraphtheory.so.0:_ZN11GraphTheory13GraphDocument11setModifiedEb
librocsgraphtheory.so.0:_ZN11GraphTheory13GraphDocument11setQpointerE14QSharedPointerIS0_E
librocsgraphtheory.so.0:_ZN11GraphTheory13GraphDocument12documentSaveEv
librocsgraphtheory.so.0:_ZN11GraphTheory13GraphDocument12edgesRemovedEv
librocsgraphtheory.so.0:_ZN11GraphTheory13GraphDocument12nodesRemovedEv
librocsgraphtheory.so.0:_ZN11GraphTheory13GraphDocument13edgeTypeAddedEv
librocsgraphtheory.so.0:_ZN11GraphTheory13GraphDocument13nodeTypeAddedEv
librocsgraphtheory.so.0:_ZN11GraphTheory13GraphDocument14documentReloadEv
librocsgraphtheory.so.0:_ZN11GraphTheory13GraphDocument14documentSaveAsERK4QUrl
librocsgraphtheory.so.0:_ZN11GraphTheory13GraphDocument14setDocumentUrlERK4QUrl
librocsgraphtheory.so.0:_ZN11GraphTheory13GraphDocument15modifiedChangedEv
librocsgraphtheory.so.0:_ZN11GraphTheory13GraphDocument15setDocumentNameERK7QString
librocsgraphtheory.so.0:_ZN11GraphTheory13GraphDocument16edgeTypesRemovedEv
librocsgraphtheory.so.0:_ZN11GraphTheory13GraphDocument16nodeTypesRemovedEv
librocsgraphtheory.so.0:_ZN11GraphTheory13GraphDocument18documentUrlChangedEv
librocsgraphtheory.so.0:_ZN11GraphTheory13GraphDocument18edgeAboutToBeAddedE14QSharedPointerINS_4EdgeEEi
librocsgraphtheory.so.0:_ZN11GraphTheory13GraphDocument18nodeAboutToBeAddedE14QSharedPointerINS_4NodeEEi
librocsgraphtheory.so.0:_ZN11GraphTheory13GraphDocument19documentNameChangedERK7QString
librocsgraphtheory.so.0:_ZN11GraphTheory13GraphDocument21edgesAboutToBeRemovedEii
librocsgraphtheory.so.0:_ZN11GraphTheory13GraphDocument21nodesAboutToBeRemovedEii
librocsgraphtheory.so.0:_ZN11GraphTheory13GraphDocument22edgeTypeAboutToBeAddedE14QSharedPointerINS_8EdgeTypeEEi
librocsgraphtheory.so.0:_ZN11GraphTheory13GraphDocument22nodeTypeAboutToBeAddedE14QSharedPointerINS_8NodeTypeEEi
librocsgraphtheory.so.0:_ZN11GraphTheory13GraphDocument25edgeTypesAboutToBeRemovedEii
librocsgraphtheory.so.0:_ZN11GraphTheory13GraphDocument25nodeTypesAboutToBeRemovedEii
librocsgraphtheory.so.0:_ZN11GraphTheory13GraphDocument6createEv
librocsgraphtheory.so.0:_ZN11GraphTheory13GraphDocument6insertE14QSharedPointerINS_4EdgeEE
librocsgraphtheory.so.0:_ZN11GraphTheory13GraphDocument6insertE14QSharedPointerINS_4NodeEE
librocsgraphtheory.so.0:_ZN11GraphTheory13GraphDocument6insertE14QSharedPointerINS_8EdgeTypeEE
librocsgraphtheory.so.0:_ZN11GraphTheory13GraphDocument6insertE14QSharedPointerINS_8NodeTypeEE
librocsgraphtheory.so.0:_ZN11GraphTheory13GraphDocument6removeE14QSharedPointerINS_4EdgeEE
librocsgraphtheory.so.0:_ZN11GraphTheory13GraphDocument6removeE14QSharedPointerINS_4NodeEE
librocsgraphtheory.so.0:_ZN11GraphTheory13GraphDocument6removeE14QSharedPointerINS_8EdgeTypeEE
librocsgraphtheory.so.0:_ZN11GraphTheory13GraphDocument6removeE14QSharedPointerINS_8NodeTypeEE
librocsgraphtheory.so.0:_ZN11GraphTheory13GraphDocument7destroyEv
librocsgraphtheory.so.0:_ZN11GraphTheory13GraphDocument9edgeAddedEv
librocsgraphtheory.so.0:_ZN11GraphTheory13GraphDocument9nodeAddedEv
librocsgraphtheory.so.0:_ZN11GraphTheory13GraphDocumentC1Ev
librocsgraphtheory.so.0:_ZN11GraphTheory13GraphDocumentC2Ev
librocsgraphtheory.so.0:_ZN11GraphTheory13GraphDocumentD0Ev
librocsgraphtheory.so.0:_ZN11GraphTheory13GraphDocumentD1Ev
librocsgraphtheory.so.0:_ZN11GraphTheory13GraphDocumentD2Ev
librocsgraphtheory.so.0:_ZN11GraphTheory13NodeTypeModel11nodeChangedEi
librocsgraphtheory.so.0:_ZN11GraphTheory13NodeTypeModel11qt_metacallEN11QMetaObject4CallEiPPv
librocsgraphtheory.so.0:_ZN11GraphTheory13NodeTypeModel11qt_metacastEPKc
librocsgraphtheory.so.0:_ZN11GraphTheory13NodeTypeModel11setDocumentE14QSharedPointerINS_13GraphDocumentEE
librocsgraphtheory.so.0:_ZN11GraphTheory13NodeTypeModel15documentChangedEv
librocsgraphtheory.so.0:_ZN11GraphTheory13NodeTypeModel15onNodeTypeAddedEv
librocsgraphtheory.so.0:_ZN11GraphTheory13NodeTypeModel18onNodeTypesRemovedEv
librocsgraphtheory.so.0:_ZN11GraphTheory13NodeTypeModel19emitNodeTypeChangedEi
librocsgraphtheory.so.0:_ZN11GraphTheory13NodeTypeModel24onNodeTypeAboutToBeAddedE14QSharedPointerINS_8NodeTypeEEi
librocsgraphtheory.so.0:_ZN11GraphTheory13NodeTypeModel27onNodeTypesAboutToBeRemovedEii
librocsgraphtheory.so.0:_ZN11GraphTheory13NodeTypeModel7setDataERK11QModelIndexRK8QVarianti
librocsgraphtheory.so.0:_ZN11GraphTheory13NodeTypeModelC1EP7QObject
librocsgraphtheory.so.0:_ZN11GraphTheory13NodeTypeModelC2EP7QObject
librocsgraphtheory.so.0:_ZN11GraphTheory13NodeTypeModelD0Ev
librocsgraphtheory.so.0:_ZN11GraphTheory13NodeTypeModelD1Ev
librocsgraphtheory.so.0:_ZN11GraphTheory13NodeTypeModelD2Ev
librocsgraphtheory.so.0:_ZN11GraphTheory13NodeTypeStyle10setVisibleEb
librocsgraphtheory.so.0:_ZN11GraphTheory13NodeTypeStyle11qt_metacallEN11QMetaObject4CallEiPPv
librocsgraphtheory.so.0:_ZN11GraphTheory13NodeTypeStyle11qt_metacastEPKc
librocsgraphtheory.so.0:_ZN11GraphTheory13NodeTypeStyle12colorChangedE6QColor
librocsgraphtheory.so.0:_ZN11GraphTheory13NodeTypeStyle17visibilityChangedEb
librocsgraphtheory.so.0:_ZN11GraphTheory13NodeTypeStyle23setPropertyNamesVisibleEb
librocsgraphtheory.so.0:_ZN11GraphTheory13NodeTypeStyle30propertyNamesVisibilityChangedEb
librocsgraphtheory.so.0:_ZN11GraphTheory13NodeTypeStyle7changedEv
librocsgraphtheory.so.0:_ZN11GraphTheory13NodeTypeStyle8setColorERK6QColor
librocsgraphtheory.so.0:_ZN11GraphTheory13NodeTypeStyleC1Ev
librocsgraphtheory.so.0:_ZN11GraphTheory13NodeTypeStyleC2Ev
librocsgraphtheory.so.0:_ZN11GraphTheory13NodeTypeStyleD0Ev
librocsgraphtheory.so.0:_ZN11GraphTheory13NodeTypeStyleD1Ev
librocsgraphtheory.so.0:_ZN11GraphTheory13NodeTypeStyleD2Ev
librocsgraphtheory.so.0:_ZN11GraphTheory17EdgePropertyModel11edgeChangedEv
librocsgraphtheory.so.0:_ZN11GraphTheory17EdgePropertyModel11qt_metacallEN11QMetaObject4CallEiPPv
librocsgraphtheory.so.0:_ZN11GraphTheory17EdgePropertyModel11qt_metacastEPKc
librocsgraphtheory.so.0:_ZN11GraphTheory17EdgePropertyModel15propertyChangedEi
librocsgraphtheory.so.0:_ZN11GraphTheory17EdgePropertyModel22onDynamicPropertyAddedEv
librocsgraphtheory.so.0:_ZN11GraphTheory17EdgePropertyModel24onDynamicPropertyChangedEi
librocsgraphtheory.so.0:_ZN11GraphTheory17EdgePropertyModel24onDynamicPropertyRemovedEv
librocsgraphtheory.so.0:_ZN11GraphTheory17EdgePropertyModel31onDynamicPropertyAboutToBeAddedERK7QStringi
librocsgraphtheory.so.0:_ZN11GraphTheory17EdgePropertyModel35onDynamicPropertiesAboutToBeRemovedEii
librocsgraphtheory.so.0:_ZN11GraphTheory17EdgePropertyModel7setEdgeEPNS_4EdgeE
librocsgraphtheory.so.0:_ZN11GraphTheory17EdgePropertyModelC1EP7QObject
librocsgraphtheory.so.0:_ZN11GraphTheory17EdgePropertyModelC2EP7QObject
librocsgraphtheory.so.0:_ZN11GraphTheory17EdgePropertyModelD0Ev
librocsgraphtheory.so.0:_ZN11GraphTheory17EdgePropertyModelD1Ev
librocsgraphtheory.so.0:_ZN11GraphTheory17EdgePropertyModelD2Ev
librocsgraphtheory.so.0:_ZN11GraphTheory17FileFormatManager11qt_metacallEN11QMetaObject4CallEiPPv
librocsgraphtheory.so.0:_ZN11GraphTheory17FileFormatManager11qt_metacastEPKc
librocsgraphtheory.so.0:_ZN11GraphTheory17FileFormatManagerC1Ev
librocsgraphtheory.so.0:_ZN11GraphTheory17FileFormatManagerC2Ev
librocsgraphtheory.so.0:_ZN11GraphTheory17FileFormatManagerD0Ev
librocsgraphtheory.so.0:_ZN11GraphTheory17FileFormatManagerD1Ev
librocsgraphtheory.so.0:_ZN11GraphTheory17FileFormatManagerD2Ev
librocsgraphtheory.so.0:_ZN11GraphTheory17NodePropertyModel11nodeChangedEv
librocsgraphtheory.so.0:_ZN11GraphTheory17NodePropertyModel11qt_metacallEN11QMetaObject4CallEiPPv
librocsgraphtheory.so.0:_ZN11GraphTheory17NodePropertyModel11qt_metacastEPKc
librocsgraphtheory.so.0:_ZN11GraphTheory17NodePropertyModel15propertyChangedEi
librocsgraphtheory.so.0:_ZN11GraphTheory17NodePropertyModel22onDynamicPropertyAddedEv
librocsgraphtheory.so.0:_ZN11GraphTheory17NodePropertyModel24onDynamicPropertyChangedEi
librocsgraphtheory.so.0:_ZN11GraphTheory17NodePropertyModel24onDynamicPropertyRemovedEv
librocsgraphtheory.so.0:_ZN11GraphTheory17NodePropertyModel31onDynamicPropertyAboutToBeAddedERK7QStringi
librocsgraphtheory.so.0:_ZN11GraphTheory17NodePropertyModel35onDynamicPropertiesAboutToBeRemovedEii
librocsgraphtheory.so.0:_ZN11GraphTheory17NodePropertyModel7setNodeEPNS_4NodeE
librocsgraphtheory.so.0:_ZN11GraphTheory17NodePropertyModelC1EP7QObject
librocsgraphtheory.so.0:_ZN11GraphTheory17NodePropertyModelC2EP7QObject
librocsgraphtheory.so.0:_ZN11GraphTheory17NodePropertyModelD0Ev
librocsgraphtheory.so.0:_ZN11GraphTheory17NodePropertyModelD1Ev
librocsgraphtheory.so.0:_ZN11GraphTheory17NodePropertyModelD2Ev
librocsgraphtheory.so.0:_ZN11GraphTheory18EdgeTypeProperties11qt_metacallEN11QMetaObject4CallEiPPv
librocsgraphtheory.so.0:_ZN11GraphTheory18EdgeTypeProperties11qt_metacastEPKc
librocsgraphtheory.so.0:_ZN11GraphTheory18EdgeTypeProperties15validateIdInputEv
librocsgraphtheory.so.0:_ZN11GraphTheory18EdgeTypeProperties5applyEv
librocsgraphtheory.so.0:_ZN11GraphTheory18EdgeTypeProperties7setTypeE14QSharedPointerINS_8EdgeTypeEE
librocsgraphtheory.so.0:_ZN11GraphTheory18EdgeTypePropertiesC1EP7QWidget
librocsgraphtheory.so.0:_ZN11GraphTheory18EdgeTypePropertiesC2EP7QWidget
librocsgraphtheory.so.0:_ZN11GraphTheory18NodeTypeProperties11qt_metacallEN11QMetaObject4CallEiPPv
librocsgraphtheory.so.0:_ZN11GraphTheory18NodeTypeProperties11qt_metacastEPKc
librocsgraphtheory.so.0:_ZN11GraphTheory18NodeTypeProperties15validateIdInputEv
librocsgraphtheory.so.0:_ZN11GraphTheory18NodeTypeProperties5applyEv
librocsgraphtheory.so.0:_ZN11GraphTheory18NodeTypeProperties7setTypeE14QSharedPointerINS_8NodeTypeEE
librocsgraphtheory.so.0:_ZN11GraphTheory18NodeTypePropertiesC1EP7QWidget
librocsgraphtheory.so.0:_ZN11GraphTheory18NodeTypePropertiesC2EP7QWidget
librocsgraphtheory.so.0:_ZN11GraphTheory19EditorPluginManager11qt_metacallEN11QMetaObject4CallEiPPv
librocsgraphtheory.so.0:_ZN11GraphTheory19EditorPluginManager11qt_metacastEPKc
librocsgraphtheory.so.0:_ZN11GraphTheory19EditorPluginManagerC1Ev
librocsgraphtheory.so.0:_ZN11GraphTheory19EditorPluginManagerC2Ev
librocsgraphtheory.so.0:_ZN11GraphTheory19EditorPluginManagerD0Ev
librocsgraphtheory.so.0:_ZN11GraphTheory19EditorPluginManagerD1Ev
librocsgraphtheory.so.0:_ZN11GraphTheory19EditorPluginManagerD2Ev
librocsgraphtheory.so.0:_ZN11GraphTheory19FileFormatInterface11qt_metacallEN11QMetaObject4CallEiPPv
librocsgraphtheory.so.0:_ZN11GraphTheory19FileFormatInterface11qt_metacastEPKc
librocsgraphtheory.so.0:_ZN11GraphTheory19FileFormatInterface16setGraphDocumentE14QSharedPointerINS_13GraphDocumentEE
librocsgraphtheory.so.0:_ZN11GraphTheory19FileFormatInterface7setFileERK4QUrl
librocsgraphtheory.so.0:_ZN11GraphTheory19FileFormatInterface8setErrorENS0_5ErrorERK7QString
librocsgraphtheory.so.0:_ZN11GraphTheory19FileFormatInterfaceC1EP7QObjectRK15KPluginMetaData
librocsgraphtheory.so.0:_ZN11GraphTheory19FileFormatInterfaceC2EP7QObjectRK15KPluginMetaData
librocsgraphtheory.so.0:_ZN11GraphTheory19FileFormatInterfaceD0Ev
librocsgraphtheory.so.0:_ZN11GraphTheory19FileFormatInterfaceD1Ev
librocsgraphtheory.so.0:_ZN11GraphTheory19FileFormatInterfaceD2Ev
librocsgraphtheory.so.0:_ZN11GraphTheory21EdgeTypePropertyModel11edgeChangedEv
librocsgraphtheory.so.0:_ZN11GraphTheory21EdgeTypePropertyModel11qt_metacallEN11QMetaObject4CallEiPPv
librocsgraphtheory.so.0:_ZN11GraphTheory21EdgeTypePropertyModel11qt_metacastEPKc
librocsgraphtheory.so.0:_ZN11GraphTheory21EdgeTypePropertyModel11setEdgeTypeEPNS_8EdgeTypeE
librocsgraphtheory.so.0:_ZN11GraphTheory21EdgeTypePropertyModel15propertyChangedEi
librocsgraphtheory.so.0:_ZN11GraphTheory21EdgeTypePropertyModel22onDynamicPropertyAddedEv
librocsgraphtheory.so.0:_ZN11GraphTheory21EdgeTypePropertyModel24onDynamicPropertyChangedEi
librocsgraphtheory.so.0:_ZN11GraphTheory21EdgeTypePropertyModel24onDynamicPropertyRemovedEv
librocsgraphtheory.so.0:_ZN11GraphTheory21EdgeTypePropertyModel31onDynamicPropertyAboutToBeAddedERK7QStringi
librocsgraphtheory.so.0:_ZN11GraphTheory21EdgeTypePropertyModel35onDynamicPropertiesAboutToBeRemovedEii
librocsgraphtheory.so.0:_ZN11GraphTheory21EdgeTypePropertyModelC1EP7QObject
librocsgraphtheory.so.0:_ZN11GraphTheory21EdgeTypePropertyModelC2EP7QObject
librocsgraphtheory.so.0:_ZN11GraphTheory21EdgeTypePropertyModelD0Ev
librocsgraphtheory.so.0:_ZN11GraphTheory21EdgeTypePropertyModelD1Ev
librocsgraphtheory.so.0:_ZN11GraphTheory21EdgeTypePropertyModelD2Ev
librocsgraphtheory.so.0:_ZN11GraphTheory21EditorPluginInterface11qt_metacallEN11QMetaObject4CallEiPPv
librocsgraphtheory.so.0:_ZN11GraphTheory21EditorPluginInterface11qt_metacastEPKc
librocsgraphtheory.so.0:_ZN11GraphTheory21EditorPluginInterfaceC1EP7QObjectRK15KPluginMetaData
librocsgraphtheory.so.0:_ZN11GraphTheory21EditorPluginInterfaceC2EP7QObjectRK15KPluginMetaData
librocsgraphtheory.so.0:_ZN11GraphTheory21EditorPluginInterfaceD0Ev
librocsgraphtheory.so.0:_ZN11GraphTheory21EditorPluginInterfaceD1Ev
librocsgraphtheory.so.0:_ZN11GraphTheory21EditorPluginInterfaceD2Ev
librocsgraphtheory.so.0:_ZN11GraphTheory21NodeTypePropertyModel11nodeChangedEv
librocsgraphtheory.so.0:_ZN11GraphTheory21NodeTypePropertyModel11qt_metacallEN11QMetaObject4CallEiPPv
librocsgraphtheory.so.0:_ZN11GraphTheory21NodeTypePropertyModel11qt_metacastEPKc
librocsgraphtheory.so.0:_ZN11GraphTheory21NodeTypePropertyModel11setNodeTypeEPNS_8NodeTypeE
librocsgraphtheory.so.0:_ZN11GraphTheory21NodeTypePropertyModel15propertyChangedEi
librocsgraphtheory.so.0:_ZN11GraphTheory21NodeTypePropertyModel22onDynamicPropertyAddedEv
librocsgraphtheory.so.0:_ZN11GraphTheory21NodeTypePropertyModel24onDynamicPropertyChangedEi
librocsgraphtheory.so.0:_ZN11GraphTheory21NodeTypePropertyModel24onDynamicPropertyRemovedEv
librocsgraphtheory.so.0:_ZN11GraphTheory21NodeTypePropertyModel31onDynamicPropertyAboutToBeAddedERK7QStringi
librocsgraphtheory.so.0:_ZN11GraphTheory21NodeTypePropertyModel35onDynamicPropertiesAboutToBeRemovedEii
librocsgraphtheory.so.0:_ZN11GraphTheory21NodeTypePropertyModelC1EP7QObject
librocsgraphtheory.so.0:_ZN11GraphTheory21NodeTypePropertyModelC2EP7QObject
librocsgraphtheory.so.0:_ZN11GraphTheory21NodeTypePropertyModelD0Ev
librocsgraphtheory.so.0:_ZN11GraphTheory21NodeTypePropertyModelD1Ev
librocsgraphtheory.so.0:_ZN11GraphTheory21NodeTypePropertyModelD2Ev
librocsgraphtheory.so.0:_ZN11GraphTheory4Edge11qt_metacallEN11QMetaObject4CallEiPPv
librocsgraphtheory.so.0:_ZN11GraphTheory4Edge11qt_metacastEPKc
librocsgraphtheory.so.0:_ZN11GraphTheory4Edge11setQpointerE14QSharedPointerIS0_E
librocsgraphtheory.so.0:_ZN11GraphTheory4Edge11typeChangedE14QSharedPointerINS_8EdgeTypeEE
librocsgraphtheory.so.0:_ZN11GraphTheory4Edge12styleChangedEv
librocsgraphtheory.so.0:_ZN11GraphTheory4Edge16directionChangedENS_8EdgeType9DirectionE
librocsgraphtheory.so.0:_ZN11GraphTheory4Edge18setDynamicPropertyERK7QStringRK8QVariant
librocsgraphtheory.so.0:_ZN11GraphTheory4Edge20dynamicPropertyAddedEv
librocsgraphtheory.so.0:_ZN11GraphTheory4Edge21renameDynamicPropertyERK7QStringS3_
librocsgraphtheory.so.0:_ZN11GraphTheory4Edge21updateDynamicPropertyERK7QString
librocsgraphtheory.so.0:_ZN11GraphTheory4Edge22dynamicPropertyChangedEi
librocsgraphtheory.so.0:_ZN11GraphTheory4Edge22dynamicPropertyRemovedEv
librocsgraphtheory.so.0:_ZN11GraphTheory4Edge24dynamicPropertiesChangedEv
librocsgraphtheory.so.0:_ZN11GraphTheory4Edge29dynamicPropertyAboutToBeAddedERK7QStringi
librocsgraphtheory.so.0:_ZN11GraphTheory4Edge33dynamicPropertiesAboutToBeRemovedEii
librocsgraphtheory.so.0:_ZN11GraphTheory4Edge6createE14QSharedPointerINS_4NodeEES3_
librocsgraphtheory.so.0:_ZN11GraphTheory4Edge7destroyEv
librocsgraphtheory.so.0:_ZN11GraphTheory4Edge7setTypeE14QSharedPointerINS_8EdgeTypeEE
librocsgraphtheory.so.0:_ZN11GraphTheory4EdgeC1Ev
librocsgraphtheory.so.0:_ZN11GraphTheory4EdgeC2Ev
librocsgraphtheory.so.0:_ZN11GraphTheory4EdgeD0Ev
librocsgraphtheory.so.0:_ZN11GraphTheory4EdgeD1Ev
librocsgraphtheory.so.0:_ZN11GraphTheory4EdgeD2Ev
librocsgraphtheory.so.0:_ZN11GraphTheory4Node11qt_metacallEN11QMetaObject4CallEiPPv
librocsgraphtheory.so.0:_ZN11GraphTheory4Node11qt_metacastEPKc
librocsgraphtheory.so.0:_ZN11GraphTheory4Node11setQpointerE14QSharedPointerIS0_E
librocsgraphtheory.so.0:_ZN11GraphTheory4Node11typeChangedE14QSharedPointerINS_8NodeTypeEE
librocsgraphtheory.so.0:_ZN11GraphTheory4Node12colorChangedERK6QColor
librocsgraphtheory.so.0:_ZN11GraphTheory4Node12styleChangedEv
librocsgraphtheory.so.0:_ZN11GraphTheory4Node15positionChangedERK7QPointF
librocsgraphtheory.so.0:_ZN11GraphTheory4Node18setDynamicPropertyERK7QStringRK8QVariant
librocsgraphtheory.so.0:_ZN11GraphTheory4Node20dynamicPropertyAddedEv
librocsgraphtheory.so.0:_ZN11GraphTheory4Node21renameDynamicPropertyERK7QStringS3_
librocsgraphtheory.so.0:_ZN11GraphTheory4Node21updateDynamicPropertyERK7QString
librocsgraphtheory.so.0:_ZN11GraphTheory4Node22dynamicPropertyChangedEi
librocsgraphtheory.so.0:_ZN11GraphTheory4Node22dynamicPropertyRemovedEv
librocsgraphtheory.so.0:_ZN11GraphTheory4Node24dynamicPropertiesChangedEv
librocsgraphtheory.so.0:_ZN11GraphTheory4Node29dynamicPropertyAboutToBeAddedERK7QStringi
librocsgraphtheory.so.0:_ZN11GraphTheory4Node33dynamicPropertiesAboutToBeRemovedEii
librocsgraphtheory.so.0:_ZN11GraphTheory4Node4setXEd
librocsgraphtheory.so.0:_ZN11GraphTheory4Node4setYEd
librocsgraphtheory.so.0:_ZN11GraphTheory4Node5setIdEi
librocsgraphtheory.so.0:_ZN11GraphTheory4Node6createE14QSharedPointerINS_13GraphDocumentEE
librocsgraphtheory.so.0:_ZN11GraphTheory4Node6insertE14QSharedPointerINS_4EdgeEE
librocsgraphtheory.so.0:_ZN11GraphTheory4Node6removeE14QSharedPointerINS_4EdgeEE
librocsgraphtheory.so.0:_ZN11GraphTheory4Node7destroyEv
librocsgraphtheory.so.0:_ZN11GraphTheory4Node7setTypeE14QSharedPointerINS_8NodeTypeEE
librocsgraphtheory.so.0:_ZN11GraphTheory4Node8setColorERK6QColor
librocsgraphtheory.so.0:_ZN11GraphTheory4Node9edgeAddedE14QSharedPointerINS_4EdgeEE
librocsgraphtheory.so.0:_ZN11GraphTheory4Node9idChangedEi
librocsgraphtheory.so.0:_ZN11GraphTheory4NodeC1Ev
librocsgraphtheory.so.0:_ZN11GraphTheory4NodeC2Ev
librocsgraphtheory.so.0:_ZN11GraphTheory4NodeD0Ev
librocsgraphtheory.so.0:_ZN11GraphTheory4NodeD1Ev
librocsgraphtheory.so.0:_ZN11GraphTheory4NodeD2Ev
librocsgraphtheory.so.0:_ZN11GraphTheory4View10createEdgeEPNS_4NodeES2_i
librocsgraphtheory.so.0:_ZN11GraphTheory4View10createNodeEddi
librocsgraphtheory.so.0:_ZN11GraphTheory4View10deleteEdgeEPNS_4EdgeE
librocsgraphtheory.so.0:_ZN11GraphTheory4View10deleteNodeEPNS_4NodeE
librocsgraphtheory.so.0:_ZN11GraphTheory4View11qt_metacallEN11QMetaObject4CallEiPPv
librocsgraphtheory.so.0:_ZN11GraphTheory4View11qt_metacastEPKc
librocsgraphtheory.so.0:_ZN11GraphTheory4View16setGraphDocumentE14QSharedPointerINS_13GraphDocumentEE
librocsgraphtheory.so.0:_ZN11GraphTheory4View24showEdgePropertiesDialogEPNS_4EdgeE
librocsgraphtheory.so.0:_ZN11GraphTheory4View24showNodePropertiesDialogEPNS_4NodeE
librocsgraphtheory.so.0:_ZN11GraphTheory4ViewC1EP7QWidget
librocsgraphtheory.so.0:_ZN11GraphTheory4ViewC2EP7QWidget
librocsgraphtheory.so.0:_ZN11GraphTheory4ViewD0Ev
librocsgraphtheory.so.0:_ZN11GraphTheory4ViewD1Ev
librocsgraphtheory.so.0:_ZN11GraphTheory4ViewD2Ev
librocsgraphtheory.so.0:_ZN11GraphTheory6Editor11qt_metacallEN11QMetaObject4CallEiPPv
librocsgraphtheory.so.0:_ZN11GraphTheory6Editor11qt_metacastEPKc
librocsgraphtheory.so.0:_ZN11GraphTheory6Editor12openDocumentERK4QUrl
librocsgraphtheory.so.0:_ZN11GraphTheory6Editor14createDocumentEv
librocsgraphtheory.so.0:_ZN11GraphTheory6Editor15documentCreatedE14QSharedPointerINS_13GraphDocumentEE
librocsgraphtheory.so.0:_ZN11GraphTheory6EditorC1Ev
librocsgraphtheory.so.0:_ZN11GraphTheory6EditorC2Ev
librocsgraphtheory.so.0:_ZN11GraphTheory6EditorD0Ev
librocsgraphtheory.so.0:_ZN11GraphTheory6EditorD1Ev
librocsgraphtheory.so.0:_ZN11GraphTheory6EditorD2Ev
librocsgraphtheory.so.0:_ZN11GraphTheory6Kernel11qt_metacallEN11QMetaObject4CallEiPPv
librocsgraphtheory.so.0:_ZN11GraphTheory6Kernel11qt_metacastEPKc
librocsgraphtheory.so.0:_ZN11GraphTheory6Kernel14attachDebuggerEv
librocsgraphtheory.so.0:_ZN11GraphTheory6Kernel14detachDebuggerEv
librocsgraphtheory.so.0:_ZN11GraphTheory6Kernel14processMessageERK7QStringNS0_11MessageTypeE
librocsgraphtheory.so.0:_ZN11GraphTheory6Kernel17executionFinishedEv
librocsgraphtheory.so.0:_ZN11GraphTheory6Kernel22triggerInterruptActionEv
librocsgraphtheory.so.0:_ZN11GraphTheory6Kernel4stopEv
librocsgraphtheory.so.0:_ZN11GraphTheory6Kernel7executeE14QSharedPointerINS_13GraphDocumentEERK7QString
librocsgraphtheory.so.0:_ZN11GraphTheory6Kernel7messageERK7QStringNS0_11MessageTypeE
librocsgraphtheory.so.0:_ZN11GraphTheory6KernelC1Ev
librocsgraphtheory.so.0:_ZN11GraphTheory6KernelC2Ev
librocsgraphtheory.so.0:_ZN11GraphTheory6KernelD0Ev
librocsgraphtheory.so.0:_ZN11GraphTheory6KernelD1Ev
librocsgraphtheory.so.0:_ZN11GraphTheory6KernelD2Ev
librocsgraphtheory.so.0:_ZN11GraphTheory8EdgeType11nameChangedERK7QString
librocsgraphtheory.so.0:_ZN11GraphTheory8EdgeType11qt_metacallEN11QMetaObject4CallEiPPv
librocsgraphtheory.so.0:_ZN11GraphTheory8EdgeType11qt_metacastEPKc
librocsgraphtheory.so.0:_ZN11GraphTheory8EdgeType11setQpointerE14QSharedPointerIS0_E
librocsgraphtheory.so.0:_ZN11GraphTheory8EdgeType12setDirectionENS0_9DirectionE
librocsgraphtheory.so.0:_ZN11GraphTheory8EdgeType16directionChangedENS0_9DirectionE
librocsgraphtheory.so.0:_ZN11GraphTheory8EdgeType18addDynamicPropertyERK7QString
librocsgraphtheory.so.0:_ZN11GraphTheory8EdgeType20dynamicPropertyAddedEv
librocsgraphtheory.so.0:_ZN11GraphTheory8EdgeType21removeDynamicPropertyERK7QString
librocsgraphtheory.so.0:_ZN11GraphTheory8EdgeType21renameDynamicPropertyERK7QStringS3_
librocsgraphtheory.so.0:_ZN11GraphTheory8EdgeType22dynamicPropertyChangedEi
librocsgraphtheory.so.0:_ZN11GraphTheory8EdgeType22dynamicPropertyRemovedERK7QString
librocsgraphtheory.so.0:_ZN11GraphTheory8EdgeType22dynamicPropertyRenamedERK7QStringS3_
librocsgraphtheory.so.0:_ZN11GraphTheory8EdgeType29dynamicPropertyAboutToBeAddedERK7QStringi
librocsgraphtheory.so.0:_ZN11GraphTheory8EdgeType33dynamicPropertiesAboutToBeRemovedEii
librocsgraphtheory.so.0:_ZN11GraphTheory8EdgeType5setIdEi
librocsgraphtheory.so.0:_ZN11GraphTheory8EdgeType6createE14QSharedPointerINS_13GraphDocumentEE
librocsgraphtheory.so.0:_ZN11GraphTheory8EdgeType7destroyEv
librocsgraphtheory.so.0:_ZN11GraphTheory8EdgeType7setNameERK7QString
librocsgraphtheory.so.0:_ZN11GraphTheory8EdgeType9idChangedEi
librocsgraphtheory.so.0:_ZN11GraphTheory8EdgeTypeC1Ev
librocsgraphtheory.so.0:_ZN11GraphTheory8EdgeTypeC2Ev
librocsgraphtheory.so.0:_ZN11GraphTheory8EdgeTypeD0Ev
librocsgraphtheory.so.0:_ZN11GraphTheory8EdgeTypeD1Ev
librocsgraphtheory.so.0:_ZN11GraphTheory8EdgeTypeD2Ev
librocsgraphtheory.so.0:_ZN11GraphTheory8NodeType11nameChangedERK7QString
librocsgraphtheory.so.0:_ZN11GraphTheory8NodeType11qt_metacallEN11QMetaObject4CallEiPPv
librocsgraphtheory.so.0:_ZN11GraphTheory8NodeType11qt_metacastEPKc
librocsgraphtheory.so.0:_ZN11GraphTheory8NodeType11setQpointerE14QSharedPointerIS0_E
librocsgraphtheory.so.0:_ZN11GraphTheory8NodeType12colorChangedERK6QColor
librocsgraphtheory.so.0:_ZN11GraphTheory8NodeType18addDynamicPropertyERK7QString
librocsgraphtheory.so.0:_ZN11GraphTheory8NodeType20dynamicPropertyAddedEv
librocsgraphtheory.so.0:_ZN11GraphTheory8NodeType21removeDynamicPropertyERK7QString
librocsgraphtheory.so.0:_ZN11GraphTheory8NodeType21renameDynamicPropertyERK7QStringS3_
librocsgraphtheory.so.0:_ZN11GraphTheory8NodeType22dynamicPropertyChangedEi
librocsgraphtheory.so.0:_ZN11GraphTheory8NodeType22dynamicPropertyRemovedERK7QString
librocsgraphtheory.so.0:_ZN11GraphTheory8NodeType22dynamicPropertyRenamedERK7QStringS3_
librocsgraphtheory.so.0:_ZN11GraphTheory8NodeType29dynamicPropertyAboutToBeAddedERK7QStringi
librocsgraphtheory.so.0:_ZN11GraphTheory8NodeType33dynamicPropertiesAboutToBeRemovedEii
librocsgraphtheory.so.0:_ZN11GraphTheory8NodeType5setIdEi
librocsgraphtheory.so.0:_ZN11GraphTheory8NodeType6createE14QSharedPointerINS_13GraphDocumentEE
librocsgraphtheory.so.0:_ZN11GraphTheory8NodeType7destroyEv
librocsgraphtheory.so.0:_ZN11GraphTheory8NodeType7setNameERK7QString
librocsgraphtheory.so.0:_ZN11GraphTheory8NodeType9idChangedEi
librocsgraphtheory.so.0:_ZN11GraphTheory8NodeTypeC1Ev
librocsgraphtheory.so.0:_ZN11GraphTheory8NodeTypeC2Ev
librocsgraphtheory.so.0:_ZN11GraphTheory8NodeTypeD0Ev
librocsgraphtheory.so.0:_ZN11GraphTheory8NodeTypeD1Ev
librocsgraphtheory.so.0:_ZN11GraphTheory8NodeTypeD2Ev
librocsgraphtheory.so.0:_ZN11GraphTheory8Topology20applyCircleAlignmentERK7QVectorI14QSharedPointerINS_4NodeEEEd
librocsgraphtheory.so.0:_ZN11GraphTheory8Topology21applyForceBasedLayoutE14QSharedPointerINS_13GraphDocumentEEdddddbj
librocsgraphtheory.so.0:_ZN11GraphTheory8Topology23applyRadialLayoutToTreeE14QSharedPointerINS_13GraphDocumentEEdddS1_INS_4NodeEEdd
librocsgraphtheory.so.0:_ZN11GraphTheory8Topology24applyMinCutTreeAlignmentERK7QVectorI14QSharedPointerINS_4NodeEEE
librocsgraphtheory.so.0:_ZN11GraphTheory8Topology28directedGraphDefaultTopologyE14QSharedPointerINS_13GraphDocumentEE
librocsgraphtheory.so.0:_ZN11GraphTheory8Topology30undirectedGraphDefaultTopologyE14QSharedPointerINS_13GraphDocumentEE
librocsgraphtheory.so.0:_ZN11GraphTheory9EdgeModel11edgeChangedEi
librocsgraphtheory.so.0:_ZN11GraphTheory9EdgeModel11onEdgeAddedEv
librocsgraphtheory.so.0:_ZN11GraphTheory9EdgeModel11qt_metacallEN11QMetaObject4CallEiPPv
librocsgraphtheory.so.0:_ZN11GraphTheory9EdgeModel11qt_metacastEPKc
librocsgraphtheory.so.0:_ZN11GraphTheory9EdgeModel11setDocumentE14QSharedPointerINS_13GraphDocumentEE
librocsgraphtheory.so.0:_ZN11GraphTheory9EdgeModel14onEdgesRemovedEv
librocsgraphtheory.so.0:_ZN11GraphTheory9EdgeModel15emitEdgeChangedEi
librocsgraphtheory.so.0:_ZN11GraphTheory9EdgeModel20onEdgeAboutToBeAddedE14QSharedPointerINS_4EdgeEEi
librocsgraphtheory.so.0:_ZN11GraphTheory9EdgeModel23onEdgesAboutToBeRemovedEii
librocsgraphtheory.so.0:_ZN11GraphTheory9EdgeModelC1EP7QObject
librocsgraphtheory.so.0:_ZN11GraphTheory9EdgeModelC2EP7QObject
librocsgraphtheory.so.0:_ZN11GraphTheory9EdgeModelD0Ev
librocsgraphtheory.so.0:_ZN11GraphTheory9EdgeModelD1Ev
librocsgraphtheory.so.0:_ZN11GraphTheory9EdgeModelD2Ev
librocsgraphtheory.so.0:_ZN11GraphTheory9NodeModel11nodeChangedEi
librocsgraphtheory.so.0:_ZN11GraphTheory9NodeModel11onNodeAddedEv
librocsgraphtheory.so.0:_ZN11GraphTheory9NodeModel11qt_metacallEN11QMetaObject4CallEiPPv
librocsgraphtheory.so.0:_ZN11GraphTheory9NodeModel11qt_metacastEPKc
librocsgraphtheory.so.0:_ZN11GraphTheory9NodeModel11setDocumentE14QSharedPointerINS_13GraphDocumentEE
librocsgraphtheory.so.0:_ZN11GraphTheory9NodeModel14onNodesRemovedEv
librocsgraphtheory.so.0:_ZN11GraphTheory9NodeModel15emitNodeChangedEi
librocsgraphtheory.so.0:_ZN11GraphTheory9NodeModel20onNodeAboutToBeAddedE14QSharedPointerINS_4NodeEEi
librocsgraphtheory.so.0:_ZN11GraphTheory9NodeModel23onNodesAboutToBeRemovedEii
librocsgraphtheory.so.0:_ZN11GraphTheory9NodeModelC1EP7QObject
librocsgraphtheory.so.0:_ZN11GraphTheory9NodeModelC2EP7QObject
librocsgraphtheory.so.0:_ZN11GraphTheory9NodeModelD0Ev
librocsgraphtheory.so.0:_ZN11GraphTheory9NodeModelD1Ev
librocsgraphtheory.so.0:_ZN11GraphTheory9NodeModelD2Ev
librocsgraphtheory.so.0:_ZNK11GraphTheory13ConsoleModule10metaObjectEv
librocsgraphtheory.so.0:_ZNK11GraphTheory13ConsoleModule7backlogEv
librocsgraphtheory.so.0:_ZNK11GraphTheory13EdgeTypeModel10headerDataEiN2Qt11OrientationEi
librocsgraphtheory.so.0:_ZNK11GraphTheory13EdgeTypeModel10metaObjectEv
librocsgraphtheory.so.0:_ZNK11GraphTheory13EdgeTypeModel4dataERK11QModelIndexi
librocsgraphtheory.so.0:_ZNK11GraphTheory13EdgeTypeModel4typeEi
librocsgraphtheory.so.0:_ZNK11GraphTheory13EdgeTypeModel8rowCountERK11QModelIndex
librocsgraphtheory.so.0:_ZNK11GraphTheory13EdgeTypeModel9roleNamesEv
librocsgraphtheory.so.0:_ZNK11GraphTheory13EdgeTypeStyle10metaObjectEv
librocsgraphtheory.so.0:_ZNK11GraphTheory13EdgeTypeStyle22isPropertyNamesVisibleEv
librocsgraphtheory.so.0:_ZNK11GraphTheory13EdgeTypeStyle5colorEv
librocsgraphtheory.so.0:_ZNK11GraphTheory13EdgeTypeStyle9isVisibleEv
librocsgraphtheory.so.0:_ZNK11GraphTheory13GraphDocument10isModifiedEv
librocsgraphtheory.so.0:_ZNK11GraphTheory13GraphDocument10metaObjectEv
librocsgraphtheory.so.0:_ZNK11GraphTheory13GraphDocument11documentUrlEv
librocsgraphtheory.so.0:_ZNK11GraphTheory13GraphDocument12documentNameEv
librocsgraphtheory.so.0:_ZNK11GraphTheory13GraphDocument4selfEv
librocsgraphtheory.so.0:_ZNK11GraphTheory13GraphDocument5edgesE14QSharedPointerINS_8EdgeTypeEE
librocsgraphtheory.so.0:_ZNK11GraphTheory13GraphDocument5nodesE14QSharedPointerINS_8NodeTypeEE
librocsgraphtheory.so.0:_ZNK11GraphTheory13GraphDocument9edgeTypesEv
librocsgraphtheory.so.0:_ZNK11GraphTheory13GraphDocument9nodeTypesEv
librocsgraphtheory.so.0:_ZNK11GraphTheory13NodeTypeModel10headerDataEiN2Qt11OrientationEi
librocsgraphtheory.so.0:_ZNK11GraphTheory13NodeTypeModel10metaObjectEv
librocsgraphtheory.so.0:_ZNK11GraphTheory13NodeTypeModel4dataERK11QModelIndexi
librocsgraphtheory.so.0:_ZNK11GraphTheory13NodeTypeModel4typeEi
librocsgraphtheory.so.0:_ZNK11GraphTheory13NodeTypeModel8documentEv
librocsgraphtheory.so.0:_ZNK11GraphTheory13NodeTypeModel8rowCountERK11QModelIndex
librocsgraphtheory.so.0:_ZNK11GraphTheory13NodeTypeModel9roleNamesEv
librocsgraphtheory.so.0:_ZNK11GraphTheory13NodeTypeStyle10metaObjectEv
librocsgraphtheory.so.0:_ZNK11GraphTheory13NodeTypeStyle22isPropertyNamesVisibleEv
librocsgraphtheory.so.0:_ZNK11GraphTheory13NodeTypeStyle5colorEv
librocsgraphtheory.so.0:_ZNK11GraphTheory13NodeTypeStyle9isVisibleEv
librocsgraphtheory.so.0:_ZNK11GraphTheory17EdgePropertyModel10headerDataEiN2Qt11OrientationEi
librocsgraphtheory.so.0:_ZNK11GraphTheory17EdgePropertyModel10metaObjectEv
librocsgraphtheory.so.0:_ZNK11GraphTheory17EdgePropertyModel4dataERK11QModelIndexi
librocsgraphtheory.so.0:_ZNK11GraphTheory17EdgePropertyModel4edgeEv
librocsgraphtheory.so.0:_ZNK11GraphTheory17EdgePropertyModel8rowCountERK11QModelIndex
librocsgraphtheory.so.0:_ZNK11GraphTheory17EdgePropertyModel9roleNamesEv
librocsgraphtheory.so.0:_ZNK11GraphTheory17FileFormatManager10metaObjectEv
librocsgraphtheory.so.0:_ZNK11GraphTheory17FileFormatManager14defaultBackendEv
librocsgraphtheory.so.0:_ZNK11GraphTheory17FileFormatManager18backendByExtensionERK7QString
librocsgraphtheory.so.0:_ZNK11GraphTheory17FileFormatManager8backendsENS0_10PluginTypeE
librocsgraphtheory.so.0:_ZNK11GraphTheory17FileFormatManager8backendsEv
librocsgraphtheory.so.0:_ZNK11GraphTheory17NodePropertyModel10headerDataEiN2Qt11OrientationEi
librocsgraphtheory.so.0:_ZNK11GraphTheory17NodePropertyModel10metaObjectEv
librocsgraphtheory.so.0:_ZNK11GraphTheory17NodePropertyModel4dataERK11QModelIndexi
librocsgraphtheory.so.0:_ZNK11GraphTheory17NodePropertyModel4nodeEv
librocsgraphtheory.so.0:_ZNK11GraphTheory17NodePropertyModel8rowCountERK11QModelIndex
librocsgraphtheory.so.0:_ZNK11GraphTheory17NodePropertyModel9roleNamesEv
librocsgraphtheory.so.0:_ZNK11GraphTheory18EdgeTypeProperties10metaObjectEv
librocsgraphtheory.so.0:_ZNK11GraphTheory18NodeTypeProperties10metaObjectEv
librocsgraphtheory.so.0:_ZNK11GraphTheory19EditorPluginManager10metaObjectEv
librocsgraphtheory.so.0:_ZNK11GraphTheory19EditorPluginManager7pluginsEv
librocsgraphtheory.so.0:_ZNK11GraphTheory19FileFormatInterface10metaObjectEv
librocsgraphtheory.so.0:_ZNK11GraphTheory19FileFormatInterface11errorStringEv
librocsgraphtheory.so.0:_ZNK11GraphTheory19FileFormatInterface13graphDocumentEv
librocsgraphtheory.so.0:_ZNK11GraphTheory19FileFormatInterface15isGraphDocumentEv
librocsgraphtheory.so.0:_ZNK11GraphTheory19FileFormatInterface16pluginCapabilityEv
librocsgraphtheory.so.0:_ZNK11GraphTheory19FileFormatInterface4fileEv
librocsgraphtheory.so.0:_ZNK11GraphTheory19FileFormatInterface5errorEv
librocsgraphtheory.so.0:_ZNK11GraphTheory19FileFormatInterface8hasErrorEv
librocsgraphtheory.so.0:_ZNK11GraphTheory21EdgeTypePropertyModel10headerDataEiN2Qt11OrientationEi
librocsgraphtheory.so.0:_ZNK11GraphTheory21EdgeTypePropertyModel10metaObjectEv
librocsgraphtheory.so.0:_ZNK11GraphTheory21EdgeTypePropertyModel4dataERK11QModelIndexi
librocsgraphtheory.so.0:_ZNK11GraphTheory21EdgeTypePropertyModel4edgeEv
librocsgraphtheory.so.0:_ZNK11GraphTheory21EdgeTypePropertyModel8rowCountERK11QModelIndex
librocsgraphtheory.so.0:_ZNK11GraphTheory21EdgeTypePropertyModel9roleNamesEv
librocsgraphtheory.so.0:_ZNK11GraphTheory21EditorPluginInterface10metaObjectEv
librocsgraphtheory.so.0:_ZNK11GraphTheory21EditorPluginInterface11displayNameEv
librocsgraphtheory.so.0:_ZNK11GraphTheory21NodeTypePropertyModel10headerDataEiN2Qt11OrientationEi
librocsgraphtheory.so.0:_ZNK11GraphTheory21NodeTypePropertyModel10metaObjectEv
librocsgraphtheory.so.0:_ZNK11GraphTheory21NodeTypePropertyModel4dataERK11QModelIndexi
librocsgraphtheory.so.0:_ZNK11GraphTheory21NodeTypePropertyModel4nodeEv
librocsgraphtheory.so.0:_ZNK11GraphTheory21NodeTypePropertyModel8rowCountERK11QModelIndex
librocsgraphtheory.so.0:_ZNK11GraphTheory21NodeTypePropertyModel9roleNamesEv
librocsgraphtheory.so.0:_ZNK11GraphTheory4Edge10metaObjectEv
librocsgraphtheory.so.0:_ZNK11GraphTheory4Edge15dynamicPropertyERK7QString
librocsgraphtheory.so.0:_ZNK11GraphTheory4Edge17dynamicPropertiesEv
librocsgraphtheory.so.0:_ZNK11GraphTheory4Edge2toEv
librocsgraphtheory.so.0:_ZNK11GraphTheory4Edge4fromEv
librocsgraphtheory.so.0:_ZNK11GraphTheory4Edge4selfEv
librocsgraphtheory.so.0:_ZNK11GraphTheory4Edge4typeEv
librocsgraphtheory.so.0:_ZNK11GraphTheory4Edge7isValidEv
librocsgraphtheory.so.0:_ZNK11GraphTheory4Node10metaObjectEv
librocsgraphtheory.so.0:_ZNK11GraphTheory4Node15dynamicPropertyERK7QString
librocsgraphtheory.so.0:_ZNK11GraphTheory4Node17dynamicPropertiesEv
librocsgraphtheory.so.0:_ZNK11GraphTheory4Node1xEv
librocsgraphtheory.so.0:_ZNK11GraphTheory4Node1yEv
librocsgraphtheory.so.0:_ZNK11GraphTheory4Node2idEv
librocsgraphtheory.so.0:_ZNK11GraphTheory4Node4selfEv
librocsgraphtheory.so.0:_ZNK11GraphTheory4Node4typeEv
librocsgraphtheory.so.0:_ZNK11GraphTheory4Node5colorEv
librocsgraphtheory.so.0:_ZNK11GraphTheory4Node5edgesE14QSharedPointerINS_8EdgeTypeEE
librocsgraphtheory.so.0:_ZNK11GraphTheory4Node7inEdgesE14QSharedPointerINS_8EdgeTypeEE
librocsgraphtheory.so.0:_ZNK11GraphTheory4Node7isValidEv
librocsgraphtheory.so.0:_ZNK11GraphTheory4Node8documentEv
librocsgraphtheory.so.0:_ZNK11GraphTheory4Node8outEdgesE14QSharedPointerINS_8EdgeTypeEE
librocsgraphtheory.so.0:_ZNK11GraphTheory4View10metaObjectEv
librocsgraphtheory.so.0:_ZNK11GraphTheory4View13graphDocumentEv
librocsgraphtheory.so.0:_ZNK11GraphTheory6Editor10metaObjectEv
librocsgraphtheory.so.0:_ZNK11GraphTheory6Editor9documentsEv
librocsgraphtheory.so.0:_ZNK11GraphTheory6Kernel10metaObjectEv
librocsgraphtheory.so.0:_ZNK11GraphTheory8EdgeType10metaObjectEv
librocsgraphtheory.so.0:_ZNK11GraphTheory8EdgeType17dynamicPropertiesEv
librocsgraphtheory.so.0:_ZNK11GraphTheory8EdgeType2idEv
librocsgraphtheory.so.0:_ZNK11GraphTheory8EdgeType4nameEv
librocsgraphtheory.so.0:_ZNK11GraphTheory8EdgeType4selfEv
librocsgraphtheory.so.0:_ZNK11GraphTheory8EdgeType5styleEv
librocsgraphtheory.so.0:_ZNK11GraphTheory8EdgeType7isValidEv
librocsgraphtheory.so.0:_ZNK11GraphTheory8EdgeType8documentEv
librocsgraphtheory.so.0:_ZNK11GraphTheory8EdgeType9directionEv
librocsgraphtheory.so.0:_ZNK11GraphTheory8NodeType10metaObjectEv
librocsgraphtheory.so.0:_ZNK11GraphTheory8NodeType17dynamicPropertiesEv
librocsgraphtheory.so.0:_ZNK11GraphTheory8NodeType2idEv
librocsgraphtheory.so.0:_ZNK11GraphTheory8NodeType4nameEv
librocsgraphtheory.so.0:_ZNK11GraphTheory8NodeType4selfEv
librocsgraphtheory.so.0:_ZNK11GraphTheory8NodeType5styleEv
librocsgraphtheory.so.0:_ZNK11GraphTheory8NodeType7isValidEv
librocsgraphtheory.so.0:_ZNK11GraphTheory8NodeType8documentEv
librocsgraphtheory.so.0:_ZNK11GraphTheory9EdgeModel10headerDataEiN2Qt11OrientationEi
librocsgraphtheory.so.0:_ZNK11GraphTheory9EdgeModel10metaObjectEv
librocsgraphtheory.so.0:_ZNK11GraphTheory9EdgeModel4dataERK11QModelIndexi
librocsgraphtheory.so.0:_ZNK11GraphTheory9EdgeModel8rowCountERK11QModelIndex
librocsgraphtheory.so.0:_ZNK11GraphTheory9EdgeModel9roleNamesEv
librocsgraphtheory.so.0:_ZNK11GraphTheory9NodeModel10headerDataEiN2Qt11OrientationEi
librocsgraphtheory.so.0:_ZNK11GraphTheory9NodeModel10metaObjectEv
librocsgraphtheory.so.0:_ZNK11GraphTheory9NodeModel4dataERK11QModelIndexi
librocsgraphtheory.so.0:_ZNK11GraphTheory9NodeModel8rowCountERK11QModelIndex
librocsgraphtheory.so.0:_ZNK11GraphTheory9NodeModel9roleNamesEv
librocsgraphtheory.so.0:_ZThn16_N11GraphTheory4ViewD0Ev
librocsgraphtheory.so.0:_ZThn16_N11GraphTheory4ViewD1Ev
